; ModuleID = 'source-C-CXX/3/1147.cpp'
source_filename = "source-C-CXX/3/1147.cpp"
target datalayout = "e-m:e-p270:32:32-p271:32:32-p272:64:64-i64:64-f80:128-n8:16:32:64-S128"
target triple = "x86_64-pc-linux-gnu"

%"class.std::ios_base::Init" = type { i8 }
%"class.std::basic_istream" = type { i32 (...)**, i64, %"class.std::basic_ios" }
%"class.std::basic_ios" = type { %"class.std::ios_base", %"class.std::basic_ostream"*, i8, i8, %"class.std::basic_streambuf"*, %"class.std::ctype"*, %"class.std::num_put"*, %"class.std::num_get"* }
%"class.std::ios_base" = type { i32 (...)**, i64, i64, i32, i32, i32, %"struct.std::ios_base::_Callback_list"*, %"struct.std::ios_base::_Words", [8 x %"struct.std::ios_base::_Words"], i32, %"struct.std::ios_base::_Words"*, %"class.std::locale" }
%"struct.std::ios_base::_Callback_list" = type { %"struct.std::ios_base::_Callback_list"*, void (i32, %"class.std::ios_base"*, i32)*, i32, i32 }
%"struct.std::ios_base::_Words" = type { i8*, i64 }
%"class.std::locale" = type { %"class.std::locale::_Impl"* }
%"class.std::locale::_Impl" = type { i32, %"class.std::locale::facet"**, i64, %"class.std::locale::facet"**, i8** }
%"class.std::locale::facet" = type <{ i32 (...)**, i32, [4 x i8] }>
%"class.std::basic_ostream" = type { i32 (...)**, %"class.std::basic_ios" }
%"class.std::basic_streambuf" = type { i32 (...)**, i8*, i8*, i8*, i8*, i8*, i8*, %"class.std::locale" }
%"class.std::ctype" = type <{ %"class.std::locale::facet.base", [4 x i8], %struct.__locale_struct*, i8, [7 x i8], i32*, i32*, i16*, i8, [256 x i8], [256 x i8], i8, [6 x i8] }>
%"class.std::locale::facet.base" = type <{ i32 (...)**, i32 }>
%struct.__locale_struct = type { [13 x %struct.__locale_data*], i16*, i32*, i32*, [13 x i8*] }
%struct.__locale_data = type opaque
%"class.std::num_put" = type { %"class.std::locale::facet.base", [4 x i8] }
%"class.std::num_get" = type { %"class.std::locale::facet.base", [4 x i8] }

@_ZStL8__ioinit = internal global %"class.std::ios_base::Init" zeroinitializer, align 1
@__dso_handle = external hidden global i8
@_ZSt3cin = external global %"class.std::basic_istream", align 8
@_ZSt4cout = external global %"class.std::basic_ostream", align 8
@llvm.global_ctors = appending global [1 x { i32, void ()*, i8* }] [{ i32, void ()*, i8* } { i32 65535, void ()* @_GLOBAL__sub_I_1147.cpp, i8* null }]

declare void @_ZNSt8ios_base4InitC1Ev(%"class.std::ios_base::Init"* nonnull align 1 dereferenceable(1)) unnamed_addr #0

; Function Attrs: nounwind
declare void @_ZNSt8ios_base4InitD1Ev(%"class.std::ios_base::Init"* nonnull align 1 dereferenceable(1)) unnamed_addr #1

; Function Attrs: nofree nounwind
declare i32 @__cxa_atexit(void (i8*)*, i8*, i8*) local_unnamed_addr #2

; Function Attrs: mustprogress norecurse sspstrong uwtable
define dso_local i32 @main() local_unnamed_addr #3 {
  %1 = alloca i32, align 4
  %2 = alloca i32, align 4
  %3 = alloca [100 x [100 x i32]], align 16
  %4 = bitcast i32* %1 to i8*
  call void @llvm.lifetime.start.p0i8(i64 4, i8* nonnull %4) #7
  store i32 0, i32* %1, align 4, !tbaa !5
  %5 = bitcast i32* %2 to i8*
  call void @llvm.lifetime.start.p0i8(i64 4, i8* nonnull %5) #7
  store i32 0, i32* %2, align 4, !tbaa !5
  %6 = bitcast [100 x [100 x i32]]* %3 to i8*
  call void @llvm.lifetime.start.p0i8(i64 40000, i8* nonnull %6) #7
  %7 = call nonnull align 8 dereferenceable(16) %"class.std::basic_istream"* @_ZNSirsERi(%"class.std::basic_istream"* nonnull align 8 dereferenceable(16) @_ZSt3cin, i32* nonnull align 4 dereferenceable(4) %1)
  %8 = call nonnull align 8 dereferenceable(16) %"class.std::basic_istream"* @_ZNSirsERi(%"class.std::basic_istream"* nonnull align 8 dereferenceable(16) %7, i32* nonnull align 4 dereferenceable(4) %2)
  %9 = load i32, i32* %1, align 4, !tbaa !5
  %10 = icmp sgt i32 %9, 0
  %11 = load i32, i32* %2, align 4, !tbaa !5
  %12 = icmp sgt i32 %11, 0
  %13 = select i1 %10, i1 %12, i1 false
  br i1 %13, label %14, label %19

14:                                               ; preds = %0, %35
  %15 = phi i32 [ %36, %35 ], [ %9, %0 ]
  %16 = phi i32 [ %37, %35 ], [ %11, %0 ]
  %17 = phi i64 [ %38, %35 ], [ 0, %0 ]
  %18 = icmp sgt i32 %16, 0
  br i1 %18, label %25, label %35

19:                                               ; preds = %35, %0
  %20 = phi i32 [ %11, %0 ], [ %37, %35 ]
  %21 = phi i32 [ %9, %0 ], [ %36, %35 ]
  %22 = add i32 %21, -1
  %23 = add i32 %22, %20
  %24 = icmp sgt i32 %23, 0
  br i1 %24, label %41, label %157

25:                                               ; preds = %14, %25
  %26 = phi i64 [ %29, %25 ], [ 0, %14 ]
  %27 = getelementptr inbounds [100 x [100 x i32]], [100 x [100 x i32]]* %3, i64 0, i64 %17, i64 %26
  %28 = call nonnull align 8 dereferenceable(16) %"class.std::basic_istream"* @_ZNSirsERi(%"class.std::basic_istream"* nonnull align 8 dereferenceable(16) @_ZSt3cin, i32* nonnull align 4 dereferenceable(4) %27)
  %29 = add nuw nsw i64 %26, 1
  %30 = load i32, i32* %2, align 4, !tbaa !5
  %31 = sext i32 %30 to i64
  %32 = icmp slt i64 %29, %31
  br i1 %32, label %25, label %33, !llvm.loop !9

33:                                               ; preds = %25
  %34 = load i32, i32* %1, align 4, !tbaa !5
  br label %35

35:                                               ; preds = %33, %14
  %36 = phi i32 [ %34, %33 ], [ %15, %14 ]
  %37 = phi i32 [ %30, %33 ], [ %16, %14 ]
  %38 = add nuw nsw i64 %17, 1
  %39 = sext i32 %36 to i64
  %40 = icmp slt i64 %38, %39
  br i1 %40, label %14, label %19, !llvm.loop !11

41:                                               ; preds = %19, %148
  %42 = phi i32 [ %149, %148 ], [ %21, %19 ]
  %43 = phi i64 [ %150, %148 ], [ 0, %19 ]
  %44 = phi i32 [ %156, %148 ], [ 1, %19 ]
  %45 = phi i32 [ %151, %148 ], [ %20, %19 ]
  %46 = sext i32 %45 to i64
  %47 = icmp slt i64 %43, %46
  br i1 %47, label %48, label %92

48:                                               ; preds = %41
  %49 = icmp sgt i32 %42, 0
  br i1 %49, label %50, label %148

50:                                               ; preds = %48, %81
  %51 = phi i64 [ %85, %81 ], [ 0, %48 ]
  %52 = phi i64 [ %86, %81 ], [ %43, %48 ]
  %53 = getelementptr inbounds [100 x [100 x i32]], [100 x [100 x i32]]* %3, i64 0, i64 %51, i64 %52
  %54 = load i32, i32* %53, align 4, !tbaa !5
  %55 = call nonnull align 8 dereferenceable(8) %"class.std::basic_ostream"* @_ZNSolsEi(%"class.std::basic_ostream"* nonnull align 8 dereferenceable(8) @_ZSt4cout, i32 %54)
  %56 = bitcast %"class.std::basic_ostream"* %55 to i8**
  %57 = load i8*, i8** %56, align 8, !tbaa !13
  %58 = getelementptr i8, i8* %57, i64 -24
  %59 = bitcast i8* %58 to i64*
  %60 = load i64, i64* %59, align 8
  %61 = bitcast %"class.std::basic_ostream"* %55 to i8*
  %62 = add nsw i64 %60, 240
  %63 = getelementptr inbounds i8, i8* %61, i64 %62
  %64 = bitcast i8* %63 to %"class.std::ctype"**
  %65 = load %"class.std::ctype"*, %"class.std::ctype"** %64, align 8, !tbaa !15
  %66 = icmp eq %"class.std::ctype"* %65, null
  br i1 %66, label %67, label %68

67:                                               ; preds = %50
  call void @_ZSt16__throw_bad_castv() #8
  unreachable

68:                                               ; preds = %50
  %69 = getelementptr inbounds %"class.std::ctype", %"class.std::ctype"* %65, i64 0, i32 8
  %70 = load i8, i8* %69, align 8, !tbaa !19
  %71 = icmp eq i8 %70, 0
  br i1 %71, label %75, label %72

72:                                               ; preds = %68
  %73 = getelementptr inbounds %"class.std::ctype", %"class.std::ctype"* %65, i64 0, i32 9, i64 10
  %74 = load i8, i8* %73, align 1, !tbaa !21
  br label %81

75:                                               ; preds = %68
  call void @_ZNKSt5ctypeIcE13_M_widen_initEv(%"class.std::ctype"* nonnull align 8 dereferenceable(570) %65)
  %76 = bitcast %"class.std::ctype"* %65 to i8 (%"class.std::ctype"*, i8)***
  %77 = load i8 (%"class.std::ctype"*, i8)**, i8 (%"class.std::ctype"*, i8)*** %76, align 8, !tbaa !13
  %78 = getelementptr inbounds i8 (%"class.std::ctype"*, i8)*, i8 (%"class.std::ctype"*, i8)** %77, i64 6
  %79 = load i8 (%"class.std::ctype"*, i8)*, i8 (%"class.std::ctype"*, i8)** %78, align 8
  %80 = call signext i8 %79(%"class.std::ctype"* nonnull align 8 dereferenceable(570) %65, i8 signext 10)
  br label %81

81:                                               ; preds = %72, %75
  %82 = phi i8 [ %74, %72 ], [ %80, %75 ]
  %83 = call nonnull align 8 dereferenceable(8) %"class.std::basic_ostream"* @_ZNSo3putEc(%"class.std::basic_ostream"* nonnull align 8 dereferenceable(8) %55, i8 signext %82)
  %84 = call nonnull align 8 dereferenceable(8) %"class.std::basic_ostream"* @_ZNSo5flushEv(%"class.std::basic_ostream"* nonnull align 8 dereferenceable(8) %83)
  %85 = add nuw nsw i64 %51, 1
  %86 = add nsw i64 %52, -1
  %87 = load i32, i32* %1, align 4, !tbaa !5
  %88 = sext i32 %87 to i64
  %89 = icmp slt i64 %85, %88
  %90 = icmp ult i64 %51, %43
  %91 = select i1 %89, i1 %90, i1 false
  br i1 %91, label %50, label %148, !llvm.loop !22

92:                                               ; preds = %41
  %93 = trunc i64 %43 to i32
  %94 = sub nsw i32 %93, %45
  %95 = add nsw i32 %94, 1
  %96 = icmp slt i32 %95, %42
  %97 = icmp sgt i32 %45, 0
  %98 = select i1 %96, i1 %97, i1 false
  br i1 %98, label %99, label %148

99:                                               ; preds = %92
  %100 = sub i32 %44, %45
  %101 = sext i32 %100 to i64
  %102 = zext i32 %45 to i64
  br label %103

103:                                              ; preds = %99, %137
  %104 = phi i64 [ %102, %99 ], [ %147, %137 ]
  %105 = phi i64 [ %101, %99 ], [ %141, %137 ]
  %106 = phi i32 [ %45, %99 ], [ %107, %137 ]
  %107 = add nsw i32 %106, -1
  %108 = zext i32 %107 to i64
  %109 = getelementptr inbounds [100 x [100 x i32]], [100 x [100 x i32]]* %3, i64 0, i64 %105, i64 %108
  %110 = load i32, i32* %109, align 4, !tbaa !5
  %111 = call nonnull align 8 dereferenceable(8) %"class.std::basic_ostream"* @_ZNSolsEi(%"class.std::basic_ostream"* nonnull align 8 dereferenceable(8) @_ZSt4cout, i32 %110)
  %112 = bitcast %"class.std::basic_ostream"* %111 to i8**
  %113 = load i8*, i8** %112, align 8, !tbaa !13
  %114 = getelementptr i8, i8* %113, i64 -24
  %115 = bitcast i8* %114 to i64*
  %116 = load i64, i64* %115, align 8
  %117 = bitcast %"class.std::basic_ostream"* %111 to i8*
  %118 = add nsw i64 %116, 240
  %119 = getelementptr inbounds i8, i8* %117, i64 %118
  %120 = bitcast i8* %119 to %"class.std::ctype"**
  %121 = load %"class.std::ctype"*, %"class.std::ctype"** %120, align 8, !tbaa !15
  %122 = icmp eq %"class.std::ctype"* %121, null
  br i1 %122, label %123, label %124

123:                                              ; preds = %103
  call void @_ZSt16__throw_bad_castv() #8
  unreachable

124:                                              ; preds = %103
  %125 = getelementptr inbounds %"class.std::ctype", %"class.std::ctype"* %121, i64 0, i32 8
  %126 = load i8, i8* %125, align 8, !tbaa !19
  %127 = icmp eq i8 %126, 0
  br i1 %127, label %131, label %128

128:                                              ; preds = %124
  %129 = getelementptr inbounds %"class.std::ctype", %"class.std::ctype"* %121, i64 0, i32 9, i64 10
  %130 = load i8, i8* %129, align 1, !tbaa !21
  br label %137

131:                                              ; preds = %124
  call void @_ZNKSt5ctypeIcE13_M_widen_initEv(%"class.std::ctype"* nonnull align 8 dereferenceable(570) %121)
  %132 = bitcast %"class.std::ctype"* %121 to i8 (%"class.std::ctype"*, i8)***
  %133 = load i8 (%"class.std::ctype"*, i8)**, i8 (%"class.std::ctype"*, i8)*** %132, align 8, !tbaa !13
  %134 = getelementptr inbounds i8 (%"class.std::ctype"*, i8)*, i8 (%"class.std::ctype"*, i8)** %133, i64 6
  %135 = load i8 (%"class.std::ctype"*, i8)*, i8 (%"class.std::ctype"*, i8)** %134, align 8
  %136 = call signext i8 %135(%"class.std::ctype"* nonnull align 8 dereferenceable(570) %121, i8 signext 10)
  br label %137

137:                                              ; preds = %128, %131
  %138 = phi i8 [ %130, %128 ], [ %136, %131 ]
  %139 = call nonnull align 8 dereferenceable(8) %"class.std::basic_ostream"* @_ZNSo3putEc(%"class.std::basic_ostream"* nonnull align 8 dereferenceable(8) %111, i8 signext %138)
  %140 = call nonnull align 8 dereferenceable(8) %"class.std::basic_ostream"* @_ZNSo5flushEv(%"class.std::basic_ostream"* nonnull align 8 dereferenceable(8) %139)
  %141 = add nsw i64 %105, 1
  %142 = load i32, i32* %1, align 4, !tbaa !5
  %143 = sext i32 %142 to i64
  %144 = icmp slt i64 %141, %143
  %145 = icmp sgt i64 %104, 1
  %146 = select i1 %144, i1 %145, i1 false
  %147 = add nsw i64 %104, -1
  br i1 %146, label %103, label %148, !llvm.loop !23

148:                                              ; preds = %137, %81, %92, %48
  %149 = phi i32 [ %42, %92 ], [ %42, %48 ], [ %87, %81 ], [ %142, %137 ]
  %150 = add nuw nsw i64 %43, 1
  %151 = load i32, i32* %2, align 4, !tbaa !5
  %152 = add i32 %149, -1
  %153 = add i32 %152, %151
  %154 = sext i32 %153 to i64
  %155 = icmp slt i64 %150, %154
  %156 = add nuw i32 %44, 1
  br i1 %155, label %41, label %157, !llvm.loop !24

157:                                              ; preds = %148, %19
  call void @llvm.lifetime.end.p0i8(i64 40000, i8* nonnull %6) #7
  call void @llvm.lifetime.end.p0i8(i64 4, i8* nonnull %5) #7
  call void @llvm.lifetime.end.p0i8(i64 4, i8* nonnull %4) #7
  ret i32 0
}

; Function Attrs: argmemonly mustprogress nofree nosync nounwind willreturn
declare void @llvm.lifetime.start.p0i8(i64 immarg, i8* nocapture) #4

declare nonnull align 8 dereferenceable(16) %"class.std::basic_istream"* @_ZNSirsERi(%"class.std::basic_istream"* nonnull align 8 dereferenceable(16), i32* nonnull align 4 dereferenceable(4)) local_unnamed_addr #0

declare nonnull align 8 dereferenceable(8) %"class.std::basic_ostream"* @_ZNSolsEi(%"class.std::basic_ostream"* nonnull align 8 dereferenceable(8), i32) local_unnamed_addr #0

; Function Attrs: argmemonly mustprogress nofree nosync nounwind willreturn
declare void @llvm.lifetime.end.p0i8(i64 immarg, i8* nocapture) #4

declare nonnull align 8 dereferenceable(8) %"class.std::basic_ostream"* @_ZNSo3putEc(%"class.std::basic_ostream"* nonnull align 8 dereferenceable(8), i8 signext) local_unnamed_addr #0

declare nonnull align 8 dereferenceable(8) %"class.std::basic_ostream"* @_ZNSo5flushEv(%"class.std::basic_ostream"* nonnull align 8 dereferenceable(8)) local_unnamed_addr #0

; Function Attrs: noreturn
declare void @_ZSt16__throw_bad_castv() local_unnamed_addr #5

declare void @_ZNKSt5ctypeIcE13_M_widen_initEv(%"class.std::ctype"* nonnull align 8 dereferenceable(570)) local_unnamed_addr #0

; Function Attrs: sspstrong uwtable
define internal void @_GLOBAL__sub_I_1147.cpp() #6 section ".text.startup" {
  tail call void @_ZNSt8ios_base4InitC1Ev(%"class.std::ios_base::Init"* nonnull align 1 dereferenceable(1) @_ZStL8__ioinit)
  %1 = tail call i32 @__cxa_atexit(void (i8*)* bitcast (void (%"class.std::ios_base::Init"*)* @_ZNSt8ios_base4InitD1Ev to void (i8*)*), i8* getelementptr inbounds (%"class.std::ios_base::Init", %"class.std::ios_base::Init"* @_ZStL8__ioinit, i64 0, i32 0), i8* nonnull @__dso_handle) #7
  ret void
}


!llvm.module.flags = !{!0, !1, !2, !3}
!llvm.ident = !{!4}

!0 = !{i32 1, !"wchar_size", i32 4}
!1 = !{i32 7, !"PIC Level", i32 2}
!2 = !{i32 7, !"PIE Level", i32 2}
!3 = !{i32 7, !"uwtable", i32 1}
!4 = !{!"clang version 13.0.0"}
!5 = !{!6, !6, i64 0}
!6 = !{!"int", !7, i64 0}
!7 = !{!"omnipotent char", !8, i64 0}
!8 = !{!"Simple C++ TBAA"}
!9 = distinct !{!9, !10}
!10 = !{!"llvm.loop.mustprogress"}
!11 = distinct !{!11, !10, !12}
!12 = !{!"llvm.loop.unswitch.partial.disable"}
!13 = !{!14, !14, i64 0}
!14 = !{!"vtable pointer", !8, i64 0}
!15 = !{!16, !17, i64 240}
!16 = !{!"_ZTSSt9basic_iosIcSt11char_traitsIcEE", !17, i64 216, !7, i64 224, !18, i64 225, !17, i64 232, !17, i64 240, !17, i64 248, !17, i64 256}
!17 = !{!"any pointer", !7, i64 0}
!18 = !{!"bool", !7, i64 0}
!19 = !{!20, !7, i64 56}
!20 = !{!"_ZTSSt5ctypeIcE", !17, i64 16, !18, i64 24, !17, i64 32, !17, i64 40, !17, i64 48, !7, i64 56, !7, i64 57, !7, i64 313, !7, i64 569}
!21 = !{!7, !7, i64 0}
!22 = distinct !{!22, !10}
!23 = distinct !{!23, !10}
!24 = distinct !{!24, !10}
